target datalayout = "e-m:e-p270:32:32-p271:32:32-p272:64:64-i64:64-i128:128-f80:128-n8:16:32:64-S128"
target triple = "x86_64-pc-linux-gnu"

%struct.commandDocs = type { ptr, ptr, ptr, ptr, i32, ptr, ptr, ptr }
%struct.helpEntry = type { i32, i32, ptr, ptr, %struct.commandDocs }
%struct.dict = type { ptr, [2 x ptr], [2 x i64], i64, i16, [2 x i8], i16, [0 x ptr] }

@helpEntriesLen = internal global i32 0, align 4
@helpEntries = internal global ptr null, align 8
@.str.5 = private unnamed_addr constant [4 x i8] c"@%s\00", align 1

; Function Attrs: nounwind uwtable
define dso_local void @cliInitGroupHelpEntries(ptr noundef %0) #0 {
  %2 = alloca ptr, align 8
  %3 = alloca ptr, align 8
  %4 = alloca ptr, align 8
  %5 = alloca %struct.helpEntry, align 8
  %6 = alloca i32, align 4
  %7 = alloca i32, align 4
  store ptr %0, ptr %2, align 8, !tbaa !23
  call void @llvm.lifetime.start.p0(i64 8, ptr %3) #15
  %8 = load ptr, ptr %2, align 8, !tbaa !23
  %9 = call ptr @dictGetIterator(ptr noundef %8)
  store ptr %9, ptr %3, align 8, !tbaa !25
  call void @llvm.lifetime.start.p0(i64 8, ptr %4) #15
  call void @llvm.lifetime.start.p0(i64 88, ptr %5) #15
  call void @llvm.lifetime.start.p0(i64 4, ptr %6) #15
  %10 = load ptr, ptr %2, align 8, !tbaa !23
  %11 = getelementptr inbounds nuw %struct.dict, ptr %10, i32 0, i32 2
  %12 = getelementptr inbounds [2 x i64], ptr %11, i64 0, i64 0
  %13 = load i64, ptr %12, align 8, !tbaa !27
  %14 = load ptr, ptr %2, align 8, !tbaa !23
  %15 = getelementptr inbounds nuw %struct.dict, ptr %14, i32 0, i32 2
  %16 = getelementptr inbounds [2 x i64], ptr %15, i64 0, i64 1
  %17 = load i64, ptr %16, align 8, !tbaa !27
  %18 = add i64 %13, %17
  %19 = trunc i64 %18 to i32
  store i32 %19, ptr %6, align 4, !tbaa !10
  call void @llvm.lifetime.start.p0(i64 4, ptr %7) #15
  %20 = load i32, ptr @helpEntriesLen, align 4, !tbaa !10
  store i32 %20, ptr %7, align 4, !tbaa !10
  %21 = load i32, ptr %6, align 4, !tbaa !10
  %22 = load i32, ptr @helpEntriesLen, align 4, !tbaa !10
  %23 = add nsw i32 %22, %21
  store i32 %23, ptr @helpEntriesLen, align 4, !tbaa !10
  %24 = load ptr, ptr @helpEntries, align 8, !tbaa !16
  %25 = load i32, ptr @helpEntriesLen, align 4, !tbaa !10
  %26 = sext i32 %25 to i64
  %27 = mul i64 88, %26
  %28 = call ptr @zrealloc(ptr noundef %24, i64 noundef %27) #17
  store ptr %28, ptr @helpEntries, align 8, !tbaa !16
  %29 = load ptr, ptr %3, align 8, !tbaa !25
  %30 = call ptr @dictNext(ptr noundef %29)
  store ptr %30, ptr %4, align 8, !tbaa !29
  br label %31

31:                                               ; preds = %70, %1
  %32 = load ptr, ptr %4, align 8, !tbaa !29
  %33 = icmp ne ptr %32, null
  br i1 %33, label %34, label %73

34:                                               ; preds = %31
  %35 = getelementptr inbounds nuw %struct.helpEntry, ptr %5, i32 0, i32 1
  store i32 1, ptr %35, align 4, !tbaa !31
  %36 = call noalias ptr @zmalloc(i64 noundef 8) #18
  %37 = getelementptr inbounds nuw %struct.helpEntry, ptr %5, i32 0, i32 2
  store ptr %36, ptr %37, align 8, !tbaa !32
  %38 = call ptr @hi_sdsempty()
  %39 = load ptr, ptr %4, align 8, !tbaa !29
  %40 = call ptr @dictGetKey(ptr noundef %39)
  %41 = call ptr (ptr, ptr, ...) @hi_sdscatprintf(ptr noundef %38, ptr noundef @.str.5, ptr noundef %40)
  %42 = getelementptr inbounds nuw %struct.helpEntry, ptr %5, i32 0, i32 2
  %43 = load ptr, ptr %42, align 8, !tbaa !32
  %44 = getelementptr inbounds ptr, ptr %43, i64 0
  store ptr %41, ptr %44, align 8, !tbaa !5
  %45 = getelementptr inbounds nuw %struct.helpEntry, ptr %5, i32 0, i32 2
  %46 = load ptr, ptr %45, align 8, !tbaa !32
  %47 = getelementptr inbounds ptr, ptr %46, i64 0
  %48 = load ptr, ptr %47, align 8, !tbaa !5
  %49 = getelementptr inbounds nuw %struct.helpEntry, ptr %5, i32 0, i32 3
  store ptr %48, ptr %49, align 8, !tbaa !17
  %50 = getelementptr inbounds nuw %struct.helpEntry, ptr %5, i32 0, i32 0
  store i32 2, ptr %50, align 8, !tbaa !33
  %51 = getelementptr inbounds nuw %struct.helpEntry, ptr %5, i32 0, i32 4
  %52 = getelementptr inbounds nuw %struct.commandDocs, ptr %51, i32 0, i32 0
  store ptr null, ptr %52, align 8, !tbaa !34
  %53 = getelementptr inbounds nuw %struct.helpEntry, ptr %5, i32 0, i32 4
  %54 = getelementptr inbounds nuw %struct.commandDocs, ptr %53, i32 0, i32 7
  store ptr null, ptr %54, align 8, !tbaa !35
  %55 = getelementptr inbounds nuw %struct.helpEntry, ptr %5, i32 0, i32 4
  %56 = getelementptr inbounds nuw %struct.commandDocs, ptr %55, i32 0, i32 5
  store ptr null, ptr %56, align 8, !tbaa !36
  %57 = getelementptr inbounds nuw %struct.helpEntry, ptr %5, i32 0, i32 4
  %58 = getelementptr inbounds nuw %struct.commandDocs, ptr %57, i32 0, i32 4
  store i32 0, ptr %58, align 8, !tbaa !37
  %59 = getelementptr inbounds nuw %struct.helpEntry, ptr %5, i32 0, i32 4
  %60 = getelementptr inbounds nuw %struct.commandDocs, ptr %59, i32 0, i32 1
  store ptr null, ptr %60, align 8, !tbaa !38
  %61 = getelementptr inbounds nuw %struct.helpEntry, ptr %5, i32 0, i32 4
  %62 = getelementptr inbounds nuw %struct.commandDocs, ptr %61, i32 0, i32 3
  store ptr null, ptr %62, align 8, !tbaa !39
  %63 = getelementptr inbounds nuw %struct.helpEntry, ptr %5, i32 0, i32 4
  %64 = getelementptr inbounds nuw %struct.commandDocs, ptr %63, i32 0, i32 2
  store ptr null, ptr %64, align 8, !tbaa !40
  %65 = load ptr, ptr @helpEntries, align 8, !tbaa !16
  %66 = load i32, ptr %7, align 4, !tbaa !10
  %67 = add nsw i32 %66, 1
  store i32 %67, ptr %7, align 4, !tbaa !10
  %68 = sext i32 %66 to i64
  %69 = getelementptr inbounds %struct.helpEntry, ptr %65, i64 %68
  call void @llvm.memcpy.p0.p0.i64(ptr align 8 %69, ptr align 8 %5, i64 88, i1 false), !tbaa.struct !41
  br label %70

70:                                               ; preds = %34
  %71 = load ptr, ptr %3, align 8, !tbaa !25
  %72 = call ptr @dictNext(ptr noundef %71)
  store ptr %72, ptr %4, align 8, !tbaa !29
  br label %31, !llvm.loop !45

73:                                               ; preds = %31
  %74 = load ptr, ptr %3, align 8, !tbaa !25
  call void @dictReleaseIterator(ptr noundef %74)
  call void @llvm.lifetime.end.p0(i64 4, ptr %7) #15
  call void @llvm.lifetime.end.p0(i64 4, ptr %6) #15
  call void @llvm.lifetime.end.p0(i64 88, ptr %5) #15
  call void @llvm.lifetime.end.p0(i64 8, ptr %4) #15
  call void @llvm.lifetime.end.p0(i64 8, ptr %3) #15
  ret void
}