; Function Attrs: nounwind uwtable
define dso_local void @cliInitGroupHelpEntries(ptr noundef %0) local_unnamed_addr #0 {
  %2 = tail call ptr @dictGetIterator(ptr noundef %0) #33
  %3 = getelementptr inbounds nuw i8, ptr %0, i64 24
  %4 = load i64, ptr %3, align 8, !tbaa !20
  %5 = getelementptr inbounds nuw i8, ptr %0, i64 32
  %6 = load i64, ptr %5, align 8, !tbaa !20
  %7 = add i64 %6, %4
  %8 = trunc i64 %7 to i32
  %9 = load i32, ptr @helpEntriesLen, align 4, !tbaa !22
  %10 = add nsw i32 %9, %8
  store i32 %10, ptr @helpEntriesLen, align 4, !tbaa !22
  %11 = load ptr, ptr @helpEntries, align 8, !tbaa !23
  %12 = sext i32 %10 to i64
  %13 = mul nsw i64 %12, 88
  %14 = tail call ptr @zrealloc(ptr noundef %11, i64 noundef %13) #36
  store ptr %14, ptr @helpEntries, align 8, !tbaa !23
  %15 = tail call ptr @dictNext(ptr noundef %2) #33
  %.not13 = icmp eq ptr %15, null
  br i1 %.not13, label %._crit_edge, label %.lr.ph.preheader

.lr.ph.preheader:                                 ; preds = %1
  %16 = sext i32 %9 to i64
  br label %.lr.ph

.lr.ph:                                           ; preds = %.lr.ph.preheader, %.lr.ph
  %indvars.iv = phi i64 [ %16, %.lr.ph.preheader ], [ %indvars.iv.next, %.lr.ph ]
  %.01214 = phi ptr [ %15, %.lr.ph.preheader ], [ %23, %.lr.ph ]
  %17 = tail call noalias dereferenceable_or_null(8) ptr @zmalloc(i64 noundef 8) #37
  %18 = tail call ptr @hi_sdsempty() #33
  %19 = tail call ptr @dictGetKey(ptr noundef nonnull %.01214) #33
  %20 = tail call ptr (ptr, ptr, ...) @hi_sdscatprintf(ptr noundef %18, ptr noundef nonnull @.str.5, ptr noundef %19) #33
  store ptr %20, ptr %17, align 8, !tbaa !24
  %21 = load ptr, ptr @helpEntries, align 8, !tbaa !23
  %indvars.iv.next = add nsw i64 %indvars.iv, 1
  %22 = getelementptr inbounds %struct.helpEntry, ptr %21, i64 %indvars.iv
  store i32 2, ptr %22, align 8, !tbaa !22
  %.sroa.4.0..sroa_idx = getelementptr inbounds nuw i8, ptr %22, i64 4
  store i32 1, ptr %.sroa.4.0..sroa_idx, align 4, !tbaa !22
  %.sroa.5.0..sroa_idx = getelementptr inbounds nuw i8, ptr %22, i64 8
  store ptr %17, ptr %.sroa.5.0..sroa_idx, align 8, !tbaa !25
  %.sroa.8.0..sroa_idx = getelementptr inbounds nuw i8, ptr %22, i64 16
  store ptr %20, ptr %.sroa.8.0..sroa_idx, align 8, !tbaa !24
  %.sroa.9.0..sroa_idx = getelementptr inbounds nuw i8, ptr %22, i64 24
  %.sroa.143.0..sroa_idx = getelementptr inbounds nuw i8, ptr %22, i64 64
  store ptr null, ptr %.sroa.143.0..sroa_idx, align 8, !tbaa !26
  %.sroa.154.0..sroa_idx = getelementptr inbounds nuw i8, ptr %22, i64 80
  store ptr null, ptr %.sroa.154.0..sroa_idx, align 8, !tbaa !24
  tail call void @llvm.memset.p0.i64(ptr noundef nonnull align 8 dereferenceable(36) %.sroa.9.0..sroa_idx, i8 0, i64 36, i1 false)
  %23 = tail call ptr @dictNext(ptr noundef %2) #33
  %.not = icmp eq ptr %23, null
  br i1 %.not, label %._crit_edge, label %.lr.ph, !llvm.loop !27

._crit_edge:                                      ; preds = %.lr.ph, %1
  tail call void @dictReleaseIterator(ptr noundef %2) #33
  ret void
}